target datalayout = "e-m:e-p270:32:32-p271:32:32-p272:64:64-i64:64-i128:128-f80:128-n8:16:32:64-S128"
target triple = "x86_64-unknown-linux-gnu"

%"class.nra::solver" = type { ptr }
%"struct.nra::solver::imp" = type { ptr, ptr, %class.params_ref, %class.u_map, %class.indexed_uint_set, %class.scoped_ptr, %class.scoped_ptr.0, %class.scoped_ptr.1, %class.scoped_ptr.1, ptr, %class.indexed_uint_set, %class.indexed_uint_set }
%class.params_ref = type { ptr }
%class.u_map = type { %class.map }
%class.map = type { %class.table2map }
%class.table2map = type { %class.core_hashtable }
%class.core_hashtable = type <{ ptr, i32, i32, i32, [4 x i8] }>
%class.scoped_ptr = type { ptr }
%class.scoped_ptr.0 = type { ptr }
%class.scoped_ptr.1 = type { ptr }
%class.indexed_uint_set = type { i32, %class.svector, %class.svector }
%class.svector = type { %class.vector }
%class.vector = type { ptr }
%class._scoped_numeral = type { ptr, %"class.algebraic_numbers::anum" }
%"class.algebraic_numbers::anum" = type { ptr }

; Function Attrs: mustprogress nounwind uwtable
define linkonce_odr hidden void @_ZN15_scoped_numeralIN17algebraic_numbers7managerEED2Ev(ptr noundef nonnull align 8 dereferenceable(16) %this) unnamed_addr #4 comdat align 2 personality ptr @__gxx_personality_v0 {
entry:
  %this.addr = alloca ptr, align 8
  store ptr %this, ptr %this.addr, align 8
  %this1 = load ptr, ptr %this.addr, align 8
  %m_manager = getelementptr inbounds %class._scoped_numeral, ptr %this1, i32 0, i32 0
  %0 = load ptr, ptr %m_manager, align 8
  %m_num = getelementptr inbounds %class._scoped_numeral, ptr %this1, i32 0, i32 1
  invoke void @_ZN17algebraic_numbers7manager3delERNS_4anumE(ptr noundef nonnull align 8 dereferenceable(17) %0, ptr noundef nonnull align 8 dereferenceable(8) %m_num)
          to label %invoke.cont unwind label %terminate.lpad

invoke.cont:                                      ; preds = %entry
  ret void

terminate.lpad:                                   ; preds = %entry
  %1 = landingpad { ptr, i32 }
          catch ptr null
  %2 = extractvalue { ptr, i32 } %1, 0
  call void @__clang_call_terminate(ptr %2) #14
  unreachable
}

; Function Attrs: mustprogress uwtable
define linkonce_odr hidden void @_Z7deallocI15_scoped_numeralIN17algebraic_numbers7managerEEEvPT_(ptr noundef %ptr) #5 comdat {
entry:
  %ptr.addr = alloca ptr, align 8
  store ptr %ptr, ptr %ptr.addr, align 8
  %0 = load ptr, ptr %ptr.addr, align 8
  %cmp = icmp eq ptr %0, null
  br i1 %cmp, label %if.then, label %if.end

if.then:                                          ; preds = %entry
  br label %return

if.end:                                           ; preds = %entry
  %1 = load ptr, ptr %ptr.addr, align 8
  call void @_ZN15_scoped_numeralIN17algebraic_numbers7managerEED2Ev(ptr noundef nonnull align 8 dereferenceable(16) %1) #3
  %2 = load ptr, ptr %ptr.addr, align 8
  call void @_ZN6memory10deallocateEPv(ptr noundef %2)
  br label %return

return:                                           ; preds = %if.end, %if.then
  ret void
}

; Function Attrs: mustprogress nounwind uwtable
define linkonce_odr hidden void @_ZN17algebraic_numbers4anumC2Ev(ptr noundef nonnull align 8 dereferenceable(8) %this) unnamed_addr #4 comdat align 2 {
entry:
  %this.addr = alloca ptr, align 8
  store ptr %this, ptr %this.addr, align 8
  %this1 = load ptr, ptr %this.addr, align 8
  %m_cell = getelementptr inbounds %"class.algebraic_numbers::anum", ptr %this1, i32 0, i32 0
  store ptr null, ptr %m_cell, align 8
  ret void
}

; Function Attrs: mustprogress nounwind uwtable
define linkonce_odr hidden noundef ptr @_ZNK10scoped_ptrIN5nlsat6solverEEptEv(ptr noundef nonnull align 8 dereferenceable(8) %this) #4 comdat align 2 {
entry:
  %this.addr = alloca ptr, align 8
  store ptr %this, ptr %this.addr, align 8
  %this1 = load ptr, ptr %this.addr, align 8
  %m_ptr = getelementptr inbounds %class.scoped_ptr, ptr %this1, i32 0, i32 0
  %0 = load ptr, ptr %m_ptr, align 8
  ret ptr %0
}

; Function Attrs: mustprogress nounwind uwtable
define linkonce_odr hidden noundef nonnull align 8 dereferenceable(16) ptr @_ZN10scoped_ptrI15_scoped_numeralIN17algebraic_numbers7managerEEEdeEv(ptr noundef nonnull align 8 dereferenceable(8) %this) #4 comdat align 2 {
entry:
  %this.addr = alloca ptr, align 8
  store ptr %this, ptr %this.addr, align 8
  %this1 = load ptr, ptr %this.addr, align 8
  %m_ptr = getelementptr inbounds %class.scoped_ptr.1, ptr %this1, i32 0, i32 0
  %0 = load ptr, ptr %m_ptr, align 8
  ret ptr %0
}

; Function Attrs: mustprogress uwtable
define linkonce_odr hidden noundef nonnull align 8 dereferenceable(8) ptr @_ZN10scoped_ptrI15_scoped_numeralIN17algebraic_numbers7managerEEEaSEPS3_(ptr noundef nonnull align 8 dereferenceable(8) %this, ptr noundef %n) #5 comdat align 2 {
entry:
  %this.addr = alloca ptr, align 8
  %n.addr = alloca ptr, align 8
  store ptr %this, ptr %this.addr, align 8
  store ptr %n, ptr %n.addr, align 8
  %this1 = load ptr, ptr %this.addr, align 8
  %m_ptr = getelementptr inbounds %class.scoped_ptr.1, ptr %this1, i32 0, i32 0
  %0 = load ptr, ptr %m_ptr, align 8
  %1 = load ptr, ptr %n.addr, align 8
  %cmp = icmp ne ptr %0, %1
  br i1 %cmp, label %if.then, label %if.end

if.then:                                          ; preds = %entry
  %m_ptr2 = getelementptr inbounds %class.scoped_ptr.1, ptr %this1, i32 0, i32 0
  %2 = load ptr, ptr %m_ptr2, align 8
  call void @_Z7deallocI15_scoped_numeralIN17algebraic_numbers7managerEEEvPT_(ptr noundef %2)
  %3 = load ptr, ptr %n.addr, align 8
  %m_ptr3 = getelementptr inbounds %class.scoped_ptr.1, ptr %this1, i32 0, i32 0
  store ptr %3, ptr %m_ptr3, align 8
  br label %if.end

if.end:                                           ; preds = %if.then, %entry
  ret ptr %this1
}

; Function Attrs: mustprogress uwtable
define linkonce_odr hidden void @_ZN15_scoped_numeralIN17algebraic_numbers7managerEEC2ERS1_(ptr noundef nonnull align 8 dereferenceable(16) %this, ptr noundef nonnull align 8 dereferenceable(17) %m) unnamed_addr #5 comdat align 2 {
entry:
  %this.addr = alloca ptr, align 8
  %m.addr = alloca ptr, align 8
  store ptr %this, ptr %this.addr, align 8
  store ptr %m, ptr %m.addr, align 8
  %this1 = load ptr, ptr %this.addr, align 8
  %m_manager = getelementptr inbounds %class._scoped_numeral, ptr %this1, i32 0, i32 0
  %0 = load ptr, ptr %m.addr, align 8
  store ptr %0, ptr %m_manager, align 8
  %m_num = getelementptr inbounds %class._scoped_numeral, ptr %this1, i32 0, i32 1
  call void @_ZN17algebraic_numbers4anumC2Ev(ptr noundef nonnull align 8 dereferenceable(8) %m_num)
  ret void
}

; Function Attrs: mustprogress uwtable
define linkonce_odr hidden noundef nonnull align 8 dereferenceable(17) ptr @_ZN3nra6solver3imp2amEv(ptr noundef nonnull align 8 dereferenceable(160) %this) #5 comdat align 2 {
entry:
  %this.addr = alloca ptr, align 8
  store ptr %this, ptr %this.addr, align 8
  %this1 = load ptr, ptr %this.addr, align 8
  %m_nlsat = getelementptr inbounds %"struct.nra::solver::imp", ptr %this1, i32 0, i32 5
  %call = call noundef ptr @_ZNK10scoped_ptrIN5nlsat6solverEEptEv(ptr noundef nonnull align 8 dereferenceable(8) %m_nlsat)
  %call2 = call noundef nonnull align 8 dereferenceable(17) ptr @_ZN5nlsat6solver2amEv(ptr noundef nonnull align 8 dereferenceable(16) %call)
  ret ptr %call2
}

; Function Attrs: mustprogress nounwind uwtable
define linkonce_odr hidden noundef zeroext i1 @_ZNK10scoped_ptrI15_scoped_numeralIN17algebraic_numbers7managerEEEcvbEv(ptr noundef nonnull align 8 dereferenceable(8) %this) #4 comdat align 2 {
entry:
  %this.addr = alloca ptr, align 8
  store ptr %this, ptr %this.addr, align 8
  %this1 = load ptr, ptr %this.addr, align 8
  %m_ptr = getelementptr inbounds %class.scoped_ptr.1, ptr %this1, i32 0, i32 0
  %0 = load ptr, ptr %m_ptr, align 8
  %cmp = icmp ne ptr %0, null
  ret i1 %cmp
}

; Function Attrs: mustprogress uwtable
define linkonce_odr hidden noundef nonnull align 8 dereferenceable(16) ptr @_ZN3nra6solver3imp4tmp1Ev(ptr noundef nonnull align 8 dereferenceable(160) %this) #5 comdat align 2 {
entry:
  %this.addr = alloca ptr, align 8
  store ptr %this, ptr %this.addr, align 8
  %this1 = load ptr, ptr %this.addr, align 8
  %m_tmp1 = getelementptr inbounds %"struct.nra::solver::imp", ptr %this1, i32 0, i32 7
  %call = call noundef zeroext i1 @_ZNK10scoped_ptrI15_scoped_numeralIN17algebraic_numbers7managerEEEcvbEv(ptr noundef nonnull align 8 dereferenceable(8) %m_tmp1)
  br i1 %call, label %if.end, label %if.then

if.then:                                          ; preds = %entry
  %call2 = call noalias noundef ptr @_ZN6memory8allocateEm(i64 noundef 16)
  %call3 = call noundef nonnull align 8 dereferenceable(17) ptr @_ZN3nra6solver3imp2amEv(ptr noundef nonnull align 8 dereferenceable(160) %this1)
  call void @_ZN15_scoped_numeralIN17algebraic_numbers7managerEEC2ERS1_(ptr noundef nonnull align 8 dereferenceable(16) %call2, ptr noundef nonnull align 8 dereferenceable(17) %call3)
  %m_tmp14 = getelementptr inbounds %"struct.nra::solver::imp", ptr %this1, i32 0, i32 7
  %call5 = call noundef nonnull align 8 dereferenceable(8) ptr @_ZN10scoped_ptrI15_scoped_numeralIN17algebraic_numbers7managerEEEaSEPS3_(ptr noundef nonnull align 8 dereferenceable(8) %m_tmp14, ptr noundef %call2)
  br label %if.end

if.end:                                           ; preds = %if.then, %entry
  %m_tmp16 = getelementptr inbounds %"struct.nra::solver::imp", ptr %this1, i32 0, i32 7
  %call7 = call noundef nonnull align 8 dereferenceable(16) ptr @_ZN10scoped_ptrI15_scoped_numeralIN17algebraic_numbers7managerEEEdeEv(ptr noundef nonnull align 8 dereferenceable(8) %m_tmp16)
  ret ptr %call7
}

; Function Attrs: mustprogress uwtable
define hidden noundef nonnull align 8 dereferenceable(16) ptr @_ZN3nra6solver4tmp1Ev(ptr noundef nonnull align 8 dereferenceable(8) %this) #5 align 2 {
entry:
  %this.addr = alloca ptr, align 8
  store ptr %this, ptr %this.addr, align 8
  %this1 = load ptr, ptr %this.addr, align 8
  %m_imp = getelementptr inbounds %"class.nra::solver", ptr %this1, i32 0, i32 0
  %0 = load ptr, ptr %m_imp, align 8
  %call = call noundef nonnull align 8 dereferenceable(16) ptr @_ZN3nra6solver3imp4tmp1Ev(ptr noundef nonnull align 8 dereferenceable(160) %0)
  ret ptr %call
}